target datalayout = "e-m:e-p270:32:32-p271:32:32-p272:64:64-i64:64-i128:128-f80:128-n8:16:32:64-S128"
target triple = "x86_64-pc-linux-gnu"

%struct.H5S_sel_iter_t = type { ptr, i32, [32 x i64], [32 x i64], i64, i64, i32, %union.anon.1 }
%union.anon.1 = type { %struct.H5S_hyper_iter_t }
%struct.H5S_hyper_iter_t = type { [32 x i64], [32 x i64], i32, i8, [32 x %struct.H5S_hyper_dim_t], [32 x i64], [32 x i64], [32 x i8], [32 x i64], ptr, [32 x ptr] }
%struct.H5S_hyper_dim_t = type { i64, i64, i64, i64 }
%struct.H5S_sel_iter_class_t = type { i32, ptr, ptr, ptr, ptr, ptr, ptr, ptr, ptr }

@H5_libinit_g = external global i8, align 1
@H5_libterm_g = external global i8, align 1
@.str.1 = private unnamed_addr constant [103 x i8] c"generated/home/dtcxzyw/WorkSpace/Projects/compilers/llvm-opt-benchmark/bench/hdf5/hdf5/src/H5Sselect.c\00", align 1
@H5E_FUNC_g = external global i64, align 8
@H5E_CANTINIT_g = external global i64, align 8
@.str.2 = private unnamed_addr constant [30 x i8] c"library initialization failed\00", align 1
@H5E_CANTSET_g = external global i64, align 8
@.str.3 = private unnamed_addr constant [22 x i8] c"can't set API context\00", align 1
@H5E_DATASPACE_g = external global i64, align 8
@H5E_BADTYPE_g = external global i64, align 8
@H5E_BADVALUE_g = external global i64, align 8
@H5E_CANTGET_g = external global i64, align 8
@.str.26 = private unnamed_addr constant [34 x i8] c"sequence length generation failed\00", align 1
@__func__.H5Ssel_iter_get_seq_list = private unnamed_addr constant [25 x i8] c"H5Ssel_iter_get_seq_list\00", align 1
@.str.88 = private unnamed_addr constant [35 x i8] c"not a dataspace selection iterator\00", align 1
@.str.89 = private unnamed_addr constant [23 x i8] c"'nseq' pointer is NULL\00", align 1
@.str.90 = private unnamed_addr constant [25 x i8] c"'nbytes' pointer is NULL\00", align 1
@.str.91 = private unnamed_addr constant [29 x i8] c"offset array pointer is NULL\00", align 1
@.str.92 = private unnamed_addr constant [29 x i8] c"length array pointer is NULL\00", align 1

; Function Attrs: nounwind uwtable
define i32 @H5Ssel_iter_get_seq_list(i64 noundef %0, i64 noundef %1, i64 noundef %2, ptr noundef %3, ptr noundef %4, ptr noundef %5, ptr noundef %6) #0 {
  %8 = alloca i64, align 8
  %9 = alloca i64, align 8
  %10 = alloca i64, align 8
  %11 = alloca ptr, align 8
  %12 = alloca ptr, align 8
  %13 = alloca ptr, align 8
  %14 = alloca ptr, align 8
  %15 = alloca ptr, align 8
  %16 = alloca i32, align 4
  %17 = alloca i8, align 1
  %18 = alloca i8, align 1
  store i64 %0, ptr %8, align 8
  store i64 %1, ptr %9, align 8
  store i64 %2, ptr %10, align 8
  store ptr %3, ptr %11, align 8
  store ptr %4, ptr %12, align 8
  store ptr %5, ptr %13, align 8
  store ptr %6, ptr %14, align 8
  store i32 0, ptr %16, align 4
  store i8 0, ptr %17, align 1
  store i8 0, ptr %18, align 1
  %19 = load i8, ptr @H5_libinit_g, align 1
  %20 = trunc i8 %19 to i1
  br i1 %20, label %25, label %21

21:                                               ; preds = %7
  %22 = load i8, ptr @H5_libterm_g, align 1
  %23 = trunc i8 %22 to i1
  %24 = xor i1 %23, true
  br label %25

25:                                               ; preds = %21, %7
  %26 = phi i1 [ false, %7 ], [ %24, %21 ]
  %27 = xor i1 %26, true
  %28 = xor i1 %27, true
  %29 = zext i1 %28 to i32
  %30 = sext i32 %29 to i64
  %31 = icmp ne i64 %30, 0
  br i1 %31, label %32, label %56

32:                                               ; preds = %25
  %33 = call i32 @H5_init_library()
  %34 = icmp slt i32 %33, 0
  %35 = xor i1 %34, true
  %36 = xor i1 %35, true
  %37 = zext i1 %36 to i32
  %38 = sext i32 %37 to i64
  %39 = icmp ne i64 %38, 0
  br i1 %39, label %40, label %55

40:                                               ; preds = %32
  br label %41

41:                                               ; preds = %40
  br label %42

42:                                               ; preds = %41
  br label %43

43:                                               ; preds = %42
  %44 = load i64, ptr @H5E_FUNC_g, align 8
  %45 = load i64, ptr @H5E_CANTINIT_g, align 8
  %46 = call i32 (ptr, ptr, i32, i64, i64, ptr, ...) @H5E_printf_stack(ptr noundef @.str.1, ptr noundef @__func__.H5Ssel_iter_get_seq_list, i32 noundef 2891, i64 noundef %44, i64 noundef %45, ptr noundef @.str.2)
  br label %47

47:                                               ; preds = %43
  store i8 1, ptr %18, align 1
  %48 = load i8, ptr %18, align 1
  %49 = trunc i8 %48 to i1
  %50 = zext i1 %49 to i8
  store i8 %50, ptr %18, align 1
  br label %51

51:                                               ; preds = %47
  br label %52

52:                                               ; preds = %51
  store i32 -1, ptr %16, align 4
  br label %218

53:                                               ; No predecessors!
  br label %54

54:                                               ; preds = %53
  br label %55

55:                                               ; preds = %54, %32
  br label %56

56:                                               ; preds = %55, %25
  %57 = call i32 @H5CX_push()
  %58 = icmp slt i32 %57, 0
  %59 = xor i1 %58, true
  %60 = xor i1 %59, true
  %61 = zext i1 %60 to i32
  %62 = sext i32 %61 to i64
  %63 = icmp ne i64 %62, 0
  br i1 %63, label %64, label %79

64:                                               ; preds = %56
  br label %65

65:                                               ; preds = %64
  br label %66

66:                                               ; preds = %65
  br label %67

67:                                               ; preds = %66
  %68 = load i64, ptr @H5E_FUNC_g, align 8
  %69 = load i64, ptr @H5E_CANTSET_g, align 8
  %70 = call i32 (ptr, ptr, i32, i64, i64, ptr, ...) @H5E_printf_stack(ptr noundef @.str.1, ptr noundef @__func__.H5Ssel_iter_get_seq_list, i32 noundef 2891, i64 noundef %68, i64 noundef %69, ptr noundef @.str.3)
  br label %71

71:                                               ; preds = %67
  store i8 1, ptr %18, align 1
  %72 = load i8, ptr %18, align 1
  %73 = trunc i8 %72 to i1
  %74 = zext i1 %73 to i8
  store i8 %74, ptr %18, align 1
  br label %75

75:                                               ; preds = %71
  br label %76

76:                                               ; preds = %75
  store i32 -1, ptr %16, align 4
  br label %218

77:                                               ; No predecessors!
  br label %78

78:                                               ; preds = %77
  br label %80

79:                                               ; preds = %56
  store i8 1, ptr %17, align 1
  br label %80

80:                                               ; preds = %79, %78
  %81 = call i32 @H5E_clear_stack()
  %82 = load i64, ptr %8, align 8
  %83 = call ptr @H5I_object_verify(i64 noundef %82, i32 noundef 15)
  store ptr %83, ptr %15, align 8
  %84 = icmp eq ptr null, %83
  br i1 %84, label %85, label %100

85:                                               ; preds = %80
  br label %86

86:                                               ; preds = %85
  br label %87

87:                                               ; preds = %86
  br label %88

88:                                               ; preds = %87
  %89 = load i64, ptr @H5E_DATASPACE_g, align 8
  %90 = load i64, ptr @H5E_BADTYPE_g, align 8
  %91 = call i32 (ptr, ptr, i32, i64, i64, ptr, ...) @H5E_printf_stack(ptr noundef @.str.1, ptr noundef @__func__.H5Ssel_iter_get_seq_list, i32 noundef 2895, i64 noundef %89, i64 noundef %90, ptr noundef @.str.88)
  br label %92

92:                                               ; preds = %88
  store i8 1, ptr %18, align 1
  %93 = load i8, ptr %18, align 1
  %94 = trunc i8 %93 to i1
  %95 = zext i1 %94 to i8
  store i8 %95, ptr %18, align 1
  br label %96

96:                                               ; preds = %92
  br label %97

97:                                               ; preds = %96
  store i32 -1, ptr %16, align 4
  br label %218

98:                                               ; No predecessors!
  br label %99

99:                                               ; preds = %98
  br label %100

100:                                              ; preds = %99, %80
  %101 = load ptr, ptr %11, align 8
  %102 = icmp eq ptr null, %101
  br i1 %102, label %103, label %118

103:                                              ; preds = %100
  br label %104

104:                                              ; preds = %103
  br label %105

105:                                              ; preds = %104
  br label %106

106:                                              ; preds = %105
  %107 = load i64, ptr @H5E_DATASPACE_g, align 8
  %108 = load i64, ptr @H5E_BADVALUE_g, align 8
  %109 = call i32 (ptr, ptr, i32, i64, i64, ptr, ...) @H5E_printf_stack(ptr noundef @.str.1, ptr noundef @__func__.H5Ssel_iter_get_seq_list, i32 noundef 2897, i64 noundef %107, i64 noundef %108, ptr noundef @.str.89)
  br label %110

110:                                              ; preds = %106
  store i8 1, ptr %18, align 1
  %111 = load i8, ptr %18, align 1
  %112 = trunc i8 %111 to i1
  %113 = zext i1 %112 to i8
  store i8 %113, ptr %18, align 1
  br label %114

114:                                              ; preds = %110
  br label %115

115:                                              ; preds = %114
  store i32 -1, ptr %16, align 4
  br label %218

116:                                              ; No predecessors!
  br label %117

117:                                              ; preds = %116
  br label %118

118:                                              ; preds = %117, %100
  %119 = load ptr, ptr %12, align 8
  %120 = icmp eq ptr null, %119
  br i1 %120, label %121, label %136

121:                                              ; preds = %118
  br label %122

122:                                              ; preds = %121
  br label %123

123:                                              ; preds = %122
  br label %124

124:                                              ; preds = %123
  %125 = load i64, ptr @H5E_DATASPACE_g, align 8
  %126 = load i64, ptr @H5E_BADVALUE_g, align 8
  %127 = call i32 (ptr, ptr, i32, i64, i64, ptr, ...) @H5E_printf_stack(ptr noundef @.str.1, ptr noundef @__func__.H5Ssel_iter_get_seq_list, i32 noundef 2899, i64 noundef %125, i64 noundef %126, ptr noundef @.str.90)
  br label %128

128:                                              ; preds = %124
  store i8 1, ptr %18, align 1
  %129 = load i8, ptr %18, align 1
  %130 = trunc i8 %129 to i1
  %131 = zext i1 %130 to i8
  store i8 %131, ptr %18, align 1
  br label %132

132:                                              ; preds = %128
  br label %133

133:                                              ; preds = %132
  store i32 -1, ptr %16, align 4
  br label %218

134:                                              ; No predecessors!
  br label %135

135:                                              ; preds = %134
  br label %136

136:                                              ; preds = %135, %118
  %137 = load ptr, ptr %13, align 8
  %138 = icmp eq ptr null, %137
  br i1 %138, label %139, label %154

139:                                              ; preds = %136
  br label %140

140:                                              ; preds = %139
  br label %141

141:                                              ; preds = %140
  br label %142

142:                                              ; preds = %141
  %143 = load i64, ptr @H5E_DATASPACE_g, align 8
  %144 = load i64, ptr @H5E_BADVALUE_g, align 8
  %145 = call i32 (ptr, ptr, i32, i64, i64, ptr, ...) @H5E_printf_stack(ptr noundef @.str.1, ptr noundef @__func__.H5Ssel_iter_get_seq_list, i32 noundef 2901, i64 noundef %143, i64 noundef %144, ptr noundef @.str.91)
  br label %146

146:                                              ; preds = %142
  store i8 1, ptr %18, align 1
  %147 = load i8, ptr %18, align 1
  %148 = trunc i8 %147 to i1
  %149 = zext i1 %148 to i8
  store i8 %149, ptr %18, align 1
  br label %150

150:                                              ; preds = %146
  br label %151

151:                                              ; preds = %150
  store i32 -1, ptr %16, align 4
  br label %218

152:                                              ; No predecessors!
  br label %153

153:                                              ; preds = %152
  br label %154

154:                                              ; preds = %153, %136
  %155 = load ptr, ptr %14, align 8
  %156 = icmp eq ptr null, %155
  br i1 %156, label %157, label %172

157:                                              ; preds = %154
  br label %158

158:                                              ; preds = %157
  br label %159

159:                                              ; preds = %158
  br label %160

160:                                              ; preds = %159
  %161 = load i64, ptr @H5E_DATASPACE_g, align 8
  %162 = load i64, ptr @H5E_BADVALUE_g, align 8
  %163 = call i32 (ptr, ptr, i32, i64, i64, ptr, ...) @H5E_printf_stack(ptr noundef @.str.1, ptr noundef @__func__.H5Ssel_iter_get_seq_list, i32 noundef 2903, i64 noundef %161, i64 noundef %162, ptr noundef @.str.92)
  br label %164

164:                                              ; preds = %160
  store i8 1, ptr %18, align 1
  %165 = load i8, ptr %18, align 1
  %166 = trunc i8 %165 to i1
  %167 = zext i1 %166 to i8
  store i8 %167, ptr %18, align 1
  br label %168

168:                                              ; preds = %164
  br label %169

169:                                              ; preds = %168
  store i32 -1, ptr %16, align 4
  br label %218

170:                                              ; No predecessors!
  br label %171

171:                                              ; preds = %170
  br label %172

172:                                              ; preds = %171, %154
  %173 = load i64, ptr %9, align 8
  %174 = icmp ugt i64 %173, 0
  br i1 %174, label %175, label %214

175:                                              ; preds = %172
  %176 = load i64, ptr %10, align 8
  %177 = icmp ugt i64 %176, 0
  br i1 %177, label %178, label %214

178:                                              ; preds = %175
  %179 = load ptr, ptr %15, align 8
  %180 = getelementptr inbounds %struct.H5S_sel_iter_t, ptr %179, i32 0, i32 4
  %181 = load i64, ptr %180, align 8
  %182 = icmp ugt i64 %181, 0
  br i1 %182, label %183, label %214

183:                                              ; preds = %178
  %184 = load ptr, ptr %15, align 8
  %185 = getelementptr inbounds %struct.H5S_sel_iter_t, ptr %184, i32 0, i32 0
  %186 = load ptr, ptr %185, align 8
  %187 = getelementptr inbounds %struct.H5S_sel_iter_class_t, ptr %186, i32 0, i32 7
  %188 = load ptr, ptr %187, align 8
  %189 = load ptr, ptr %15, align 8
  %190 = load i64, ptr %9, align 8
  %191 = load i64, ptr %10, align 8
  %192 = load ptr, ptr %11, align 8
  %193 = load ptr, ptr %12, align 8
  %194 = load ptr, ptr %13, align 8
  %195 = load ptr, ptr %14, align 8
  %196 = call i32 %188(ptr noundef %189, i64 noundef %190, i64 noundef %191, ptr noundef %192, ptr noundef %193, ptr noundef %194, ptr noundef %195)
  %197 = icmp slt i32 %196, 0
  br i1 %197, label %198, label %213

198:                                              ; preds = %183
  br label %199

199:                                              ; preds = %198
  br label %200

200:                                              ; preds = %199
  br label %201

201:                                              ; preds = %200
  %202 = load i64, ptr @H5E_DATASPACE_g, align 8
  %203 = load i64, ptr @H5E_CANTGET_g, align 8
  %204 = call i32 (ptr, ptr, i32, i64, i64, ptr, ...) @H5E_printf_stack(ptr noundef @.str.1, ptr noundef @__func__.H5Ssel_iter_get_seq_list, i32 noundef 2908, i64 noundef %202, i64 noundef %203, ptr noundef @.str.26)
  br label %205

205:                                              ; preds = %201
  store i8 1, ptr %18, align 1
  %206 = load i8, ptr %18, align 1
  %207 = trunc i8 %206 to i1
  %208 = zext i1 %207 to i8
  store i8 %208, ptr %18, align 1
  br label %209

209:                                              ; preds = %205
  br label %210

210:                                              ; preds = %209
  store i32 -1, ptr %16, align 4
  br label %218

211:                                              ; No predecessors!
  br label %212

212:                                              ; preds = %211
  br label %213

213:                                              ; preds = %212, %183
  br label %217

214:                                              ; preds = %178, %175, %172
  %215 = load ptr, ptr %12, align 8
  store i64 0, ptr %215, align 8
  %216 = load ptr, ptr %11, align 8
  store i64 0, ptr %216, align 8
  br label %217

217:                                              ; preds = %214, %213
  br label %218

218:                                              ; preds = %217, %210, %169, %151, %133, %115, %97, %76, %52
  %219 = load i8, ptr %17, align 1
  %220 = trunc i8 %219 to i1
  %221 = xor i1 %220, true
  %222 = xor i1 %221, true
  %223 = zext i1 %222 to i32
  %224 = sext i32 %223 to i64
  %225 = icmp ne i64 %224, 0
  br i1 %225, label %226, label %228

226:                                              ; preds = %218
  %227 = call i32 @H5CX_pop(i1 noundef zeroext true)
  store i8 0, ptr %17, align 1
  br label %228

228:                                              ; preds = %226, %218
  %229 = load i8, ptr %18, align 1
  %230 = trunc i8 %229 to i1
  %231 = xor i1 %230, true
  %232 = xor i1 %231, true
  %233 = zext i1 %232 to i32
  %234 = sext i32 %233 to i64
  %235 = icmp ne i64 %234, 0
  br i1 %235, label %236, label %238

236:                                              ; preds = %228
  %237 = call i32 @H5E_dump_api_stack()
  br label %238

238:                                              ; preds = %236, %228
  %239 = load i32, ptr %16, align 4
  ret i32 %239
}