; Function Attrs: nounwind uwtable
define range(i32 -1, 1) i32 @H5Ssel_iter_get_seq_list(i64 noundef %0, i64 noundef %1, i64 noundef %2, ptr noundef %3, ptr noundef %4, ptr noundef %5, ptr noundef %6) local_unnamed_addr #3 {
  %8 = load i8, ptr @H5_libinit_g, align 1
  %9 = trunc i8 %8 to i1
  %10 = load i8, ptr @H5_libterm_g, align 1
  %11 = trunc i8 %10 to i1
  %12 = select i1 %9, i1 true, i1 %11
  br i1 %12, label %20, label %13

13:                                               ; preds = %7
  %14 = tail call i32 @H5_init_library() #7
  %15 = icmp slt i32 %14, 0
  br i1 %15, label %16, label %20

16:                                               ; preds = %13
  %17 = load i64, ptr @H5E_FUNC_g, align 8
  %18 = load i64, ptr @H5E_CANTINIT_g, align 8
  %19 = tail call i32 (ptr, ptr, i32, i64, i64, ptr, ...) @H5E_printf_stack(ptr noundef nonnull @.str.1, ptr noundef nonnull @__func__.H5Ssel_iter_get_seq_list, i32 noundef 2891, i64 noundef %17, i64 noundef %18, ptr noundef nonnull @.str.2) #7
  br label %.thread46

20:                                               ; preds = %13, %7
  %21 = tail call i32 @H5CX_push() #7
  %22 = icmp slt i32 %21, 0
  br i1 %22, label %23, label %27

23:                                               ; preds = %20
  %24 = load i64, ptr @H5E_FUNC_g, align 8
  %25 = load i64, ptr @H5E_CANTSET_g, align 8
  %26 = tail call i32 (ptr, ptr, i32, i64, i64, ptr, ...) @H5E_printf_stack(ptr noundef nonnull @.str.1, ptr noundef nonnull @__func__.H5Ssel_iter_get_seq_list, i32 noundef 2891, i64 noundef %24, i64 noundef %25, ptr noundef nonnull @.str.3) #7
  br label %.thread46

27:                                               ; preds = %20
  %28 = tail call i32 @H5E_clear_stack() #7
  %29 = tail call ptr @H5I_object_verify(i64 noundef %0, i32 noundef 15) #7
  %30 = icmp eq ptr %29, null
  br i1 %30, label %31, label %35

31:                                               ; preds = %27
  %32 = load i64, ptr @H5E_DATASPACE_g, align 8
  %33 = load i64, ptr @H5E_BADTYPE_g, align 8
  %34 = tail call i32 (ptr, ptr, i32, i64, i64, ptr, ...) @H5E_printf_stack(ptr noundef nonnull @.str.1, ptr noundef nonnull @__func__.H5Ssel_iter_get_seq_list, i32 noundef 2895, i64 noundef %32, i64 noundef %33, ptr noundef nonnull @.str.88) #7
  br label %.thread52

35:                                               ; preds = %27
  %36 = icmp eq ptr %3, null
  br i1 %36, label %37, label %41

37:                                               ; preds = %35
  %38 = load i64, ptr @H5E_DATASPACE_g, align 8
  %39 = load i64, ptr @H5E_BADVALUE_g, align 8
  %40 = tail call i32 (ptr, ptr, i32, i64, i64, ptr, ...) @H5E_printf_stack(ptr noundef nonnull @.str.1, ptr noundef nonnull @__func__.H5Ssel_iter_get_seq_list, i32 noundef 2897, i64 noundef %38, i64 noundef %39, ptr noundef nonnull @.str.89) #7
  br label %.thread52

41:                                               ; preds = %35
  %42 = icmp eq ptr %4, null
  br i1 %42, label %43, label %47

43:                                               ; preds = %41
  %44 = load i64, ptr @H5E_DATASPACE_g, align 8
  %45 = load i64, ptr @H5E_BADVALUE_g, align 8
  %46 = tail call i32 (ptr, ptr, i32, i64, i64, ptr, ...) @H5E_printf_stack(ptr noundef nonnull @.str.1, ptr noundef nonnull @__func__.H5Ssel_iter_get_seq_list, i32 noundef 2899, i64 noundef %44, i64 noundef %45, ptr noundef nonnull @.str.90) #7
  br label %.thread52

47:                                               ; preds = %41
  %48 = icmp eq ptr %5, null
  br i1 %48, label %49, label %53

49:                                               ; preds = %47
  %50 = load i64, ptr @H5E_DATASPACE_g, align 8
  %51 = load i64, ptr @H5E_BADVALUE_g, align 8
  %52 = tail call i32 (ptr, ptr, i32, i64, i64, ptr, ...) @H5E_printf_stack(ptr noundef nonnull @.str.1, ptr noundef nonnull @__func__.H5Ssel_iter_get_seq_list, i32 noundef 2901, i64 noundef %50, i64 noundef %51, ptr noundef nonnull @.str.91) #7
  br label %.thread52

53:                                               ; preds = %47
  %54 = icmp eq ptr %6, null
  br i1 %54, label %55, label %59

55:                                               ; preds = %53
  %56 = load i64, ptr @H5E_DATASPACE_g, align 8
  %57 = load i64, ptr @H5E_BADVALUE_g, align 8
  %58 = tail call i32 (ptr, ptr, i32, i64, i64, ptr, ...) @H5E_printf_stack(ptr noundef nonnull @.str.1, ptr noundef nonnull @__func__.H5Ssel_iter_get_seq_list, i32 noundef 2903, i64 noundef %56, i64 noundef %57, ptr noundef nonnull @.str.92) #7
  br label %.thread52

59:                                               ; preds = %53
  %60 = icmp ne i64 %1, 0
  %61 = icmp ne i64 %2, 0
  %or.cond = and i1 %60, %61
  br i1 %or.cond, label %62, label %75

62:                                               ; preds = %59
  %63 = getelementptr inbounds i8, ptr %29, i64 528
  %64 = load i64, ptr %63, align 8
  %.not = icmp eq i64 %64, 0
  br i1 %.not, label %75, label %65

65:                                               ; preds = %62
  %66 = load ptr, ptr %29, align 8
  %67 = getelementptr inbounds i8, ptr %66, i64 56
  %68 = load ptr, ptr %67, align 8
  %69 = tail call i32 %68(ptr noundef nonnull %29, i64 noundef %1, i64 noundef %2, ptr noundef nonnull %3, ptr noundef nonnull %4, ptr noundef nonnull %5, ptr noundef nonnull %6) #7
  %70 = icmp slt i32 %69, 0
  br i1 %70, label %71, label %77

71:                                               ; preds = %65
  %72 = load i64, ptr @H5E_DATASPACE_g, align 8
  %73 = load i64, ptr @H5E_CANTGET_g, align 8
  %74 = tail call i32 (ptr, ptr, i32, i64, i64, ptr, ...) @H5E_printf_stack(ptr noundef nonnull @.str.1, ptr noundef nonnull @__func__.H5Ssel_iter_get_seq_list, i32 noundef 2908, i64 noundef %72, i64 noundef %73, ptr noundef nonnull @.str.26) #7
  br label %.thread52

75:                                               ; preds = %62, %59
  store i64 0, ptr %4, align 8
  store i64 0, ptr %3, align 8
  br label %77

.thread52:                                        ; preds = %71, %55, %49, %43, %37, %31
  %76 = tail call i32 @H5CX_pop(i1 noundef zeroext true) #7
  br label %.thread46

77:                                               ; preds = %75, %65
  %78 = tail call i32 @H5CX_pop(i1 noundef zeroext true) #7
  br label %80

.thread46:                                        ; preds = %23, %16, %.thread52
  %79 = tail call i32 @H5E_dump_api_stack() #7
  br label %80

80:                                               ; preds = %77, %.thread46
  %.0304149 = phi i32 [ -1, %.thread46 ], [ 0, %77 ]
  ret i32 %.0304149
}